; Function Attrs: nofree norecurse nosync nounwind memory(argmem: readwrite) uwtable
define dso_local range(i64 -66, 4294967296) i64 @HIST_countFast_wksp(ptr noundef captures(none) %0, ptr noundef captures(none) %1, ptr noundef %2, i64 noundef %3, ptr noundef %4, i64 noundef %5) local_unnamed_addr #1 {
  %7 = icmp ult i64 %3, 1500
  br i1 %7, label %8, label %32

8:                                                ; preds = %6
  %9 = getelementptr inbounds nuw i8, ptr %2, i64 %3
  %10 = load i32, ptr %1, align 4, !tbaa !4
  %11 = add i32 %10, 1
  %12 = zext i32 %11 to i64
  %13 = shl nuw nsw i64 %12, 2
  tail call void @llvm.memset.p0.i64(ptr align 4 %0, i8 0, i64 %13, i1 false)
  %14 = icmp eq i64 %3, 0
  br i1 %14, label %15, label %.lr.ph.i

15:                                               ; preds = %8
  store i32 0, ptr %1, align 4, !tbaa !4
  br label %HIST_count_simple.exit

.lr.ph.i:                                         ; preds = %8, %.lr.ph.i
  %.02933.i = phi ptr [ %16, %.lr.ph.i ], [ %2, %8 ]
  %16 = getelementptr inbounds nuw i8, ptr %.02933.i, i64 1
  %17 = load i8, ptr %.02933.i, align 1, !tbaa !8
  %18 = zext i8 %17 to i64
  %19 = getelementptr inbounds nuw i32, ptr %0, i64 %18
  %20 = load i32, ptr %19, align 4, !tbaa !4
  %21 = add i32 %20, 1
  store i32 %21, ptr %19, align 4, !tbaa !4
  %22 = icmp ult ptr %16, %9
  br i1 %22, label %.lr.ph.i, label %.preheader.i, !llvm.loop !9

.preheader.i:                                     ; preds = %.lr.ph.i, %.preheader.i
  %.027.i = phi i32 [ %26, %.preheader.i ], [ %10, %.lr.ph.i ]
  %23 = zext i32 %.027.i to i64
  %24 = getelementptr inbounds nuw i32, ptr %0, i64 %23
  %25 = load i32, ptr %24, align 4, !tbaa !4
  %.not.i = icmp eq i32 %25, 0
  %26 = add i32 %.027.i, -1
  br i1 %.not.i, label %.preheader.i, label %27, !llvm.loop !11

27:                                               ; preds = %.preheader.i
  store i32 %.027.i, ptr %1, align 4, !tbaa !4
  br label %28

28:                                               ; preds = %28, %27
  %indvars.iv.i = phi i64 [ 0, %27 ], [ %indvars.iv.next.i, %28 ]
  %.02634.i = phi i32 [ 0, %27 ], [ %spec.select.i, %28 ]
  %29 = getelementptr inbounds nuw i32, ptr %0, i64 %indvars.iv.i
  %30 = load i32, ptr %29, align 4, !tbaa !4
  %spec.select.i = tail call i32 @llvm.umax.i32(i32 %30, i32 %.02634.i)
  %indvars.iv.next.i = add nuw nsw i64 %indvars.iv.i, 1
  %exitcond.not = icmp eq i64 %indvars.iv.i, %23
  br i1 %exitcond.not, label %HIST_count_simple.exit.loopexit, label %28, !llvm.loop !12

HIST_count_simple.exit.loopexit:                  ; preds = %28
  %31 = zext i32 %spec.select.i to i64
  br label %HIST_count_simple.exit

32:                                               ; preds = %6
  %33 = ptrtoint ptr %4 to i64
  %34 = and i64 %33, 3
  %.not = icmp eq i64 %34, 0
  br i1 %.not, label %35, label %HIST_count_simple.exit

35:                                               ; preds = %32
  %36 = icmp ult i64 %5, 4096
  br i1 %36, label %HIST_count_simple.exit, label %37

37:                                               ; preds = %35
  %38 = tail call fastcc i64 @HIST_count_parallel_wksp(ptr noundef %0, ptr noundef %1, ptr noundef %2, i64 noundef %3, i32 noundef 0, ptr noundef %4)
  br label %HIST_count_simple.exit

HIST_count_simple.exit:                           ; preds = %15, %HIST_count_simple.exit.loopexit, %35, %32, %37
  %.0 = phi i64 [ %38, %37 ], [ -1, %32 ], [ -66, %35 ], [ 0, %15 ], [ %31, %HIST_count_simple.exit.loopexit ]
  ret i64 %.0
}